target datalayout = "e-m:e-p270:32:32-p271:32:32-p272:64:64-i64:64-i128:128-f80:128-n8:16:32:64-S128"
target triple = "x86_64-pc-linux-gnu"

%struct.SDL_Properties = type { ptr, ptr }
%struct.CopyOnePropertyData = type { ptr, i8 }

@SDL_properties = internal global ptr null, align 8
@.str = private unnamed_addr constant [26 x i8] c"Parameter '%s' is invalid\00", align 1
@.str.1 = private unnamed_addr constant [4 x i8] c"src\00", align 1
@.str.2 = private unnamed_addr constant [4 x i8] c"dst\00", align 1

; Function Attrs: nounwind uwtable
define hidden zeroext i1 @SDL_CopyProperties_REAL(i32 noundef %0, i32 noundef %1) #0 {
  %3 = alloca i1, align 1
  %4 = alloca i32, align 4
  %5 = alloca i32, align 4
  %6 = alloca ptr, align 8
  %7 = alloca ptr, align 8
  %8 = alloca i32, align 4
  %9 = alloca i8, align 1
  %10 = alloca %struct.CopyOnePropertyData, align 8
  store i32 %0, ptr %4, align 4
  store i32 %1, ptr %5, align 4
  %11 = load i32, ptr %4, align 4
  %12 = icmp ne i32 %11, 0
  br i1 %12, label %15, label %13

13:                                               ; preds = %2
  %14 = call zeroext i1 (ptr, ...) @SDL_SetError_REAL(ptr noundef @.str, ptr noundef @.str.1)
  store i1 %14, ptr %3, align 1
  br label %68

15:                                               ; preds = %2
  %16 = load i32, ptr %5, align 4
  %17 = icmp ne i32 %16, 0
  br i1 %17, label %20, label %18

18:                                               ; preds = %15
  %19 = call zeroext i1 (ptr, ...) @SDL_SetError_REAL(ptr noundef @.str, ptr noundef @.str.2)
  store i1 %19, ptr %3, align 1
  br label %68

20:                                               ; preds = %15
  call void @llvm.lifetime.start.p0(i64 8, ptr %6) #6
  store ptr null, ptr %6, align 8
  call void @llvm.lifetime.start.p0(i64 8, ptr %7) #6
  store ptr null, ptr %7, align 8
  %21 = load ptr, ptr @SDL_properties, align 8
  %22 = load i32, ptr %4, align 4
  %23 = zext i32 %22 to i64
  %24 = inttoptr i64 %23 to ptr
  %25 = call zeroext i1 @SDL_FindInHashTable(ptr noundef %21, ptr noundef %24, ptr noundef %6)
  %26 = load ptr, ptr %6, align 8
  %27 = icmp ne ptr %26, null
  br i1 %27, label %30, label %28

28:                                               ; preds = %20
  %29 = call zeroext i1 (ptr, ...) @SDL_SetError_REAL(ptr noundef @.str, ptr noundef @.str.1)
  store i1 %29, ptr %3, align 1
  store i32 1, ptr %8, align 4
  br label %67

30:                                               ; preds = %20
  %31 = load ptr, ptr @SDL_properties, align 8
  %32 = load i32, ptr %5, align 4
  %33 = zext i32 %32 to i64
  %34 = inttoptr i64 %33 to ptr
  %35 = call zeroext i1 @SDL_FindInHashTable(ptr noundef %31, ptr noundef %34, ptr noundef %7)
  %36 = load ptr, ptr %7, align 8
  %37 = icmp ne ptr %36, null
  br i1 %37, label %40, label %38

38:                                               ; preds = %30
  %39 = call zeroext i1 (ptr, ...) @SDL_SetError_REAL(ptr noundef @.str, ptr noundef @.str.2)
  store i1 %39, ptr %3, align 1
  store i32 1, ptr %8, align 4
  br label %67

40:                                               ; preds = %30
  call void @llvm.lifetime.start.p0(i64 1, ptr %9) #6
  store i8 1, ptr %9, align 1
  %41 = load ptr, ptr %6, align 8
  %42 = getelementptr inbounds nuw %struct.SDL_Properties, ptr %41, i32 0, i32 1
  %43 = load ptr, ptr %42, align 8
  call void @SDL_LockMutex_REAL(ptr noundef %43)
  %44 = load ptr, ptr %7, align 8
  %45 = getelementptr inbounds nuw %struct.SDL_Properties, ptr %44, i32 0, i32 1
  %46 = load ptr, ptr %45, align 8
  call void @SDL_LockMutex_REAL(ptr noundef %46)
  call void @llvm.lifetime.start.p0(i64 16, ptr %10) #6
  %47 = getelementptr inbounds nuw %struct.CopyOnePropertyData, ptr %10, i32 0, i32 0
  %48 = load ptr, ptr %7, align 8
  store ptr %48, ptr %47, align 8
  %49 = getelementptr inbounds nuw %struct.CopyOnePropertyData, ptr %10, i32 0, i32 1
  store i8 1, ptr %49, align 8
  %50 = getelementptr i8, ptr %10, i64 9
  call void @llvm.memset.p0.i64(ptr align 1 %50, i8 0, i64 7, i1 false)
  %51 = load ptr, ptr %6, align 8
  %52 = getelementptr inbounds nuw %struct.SDL_Properties, ptr %51, i32 0, i32 0
  %53 = load ptr, ptr %52, align 8
  %54 = call zeroext i1 @SDL_IterateHashTable(ptr noundef %53, ptr noundef @CopyOneProperty, ptr noundef %10)
  %55 = getelementptr inbounds nuw %struct.CopyOnePropertyData, ptr %10, i32 0, i32 1
  %56 = load i8, ptr %55, align 8, !range !3, !noundef !4
  %57 = trunc i8 %56 to i1
  %58 = zext i1 %57 to i8
  store i8 %58, ptr %9, align 1
  call void @llvm.lifetime.end.p0(i64 16, ptr %10) #6
  %59 = load ptr, ptr %7, align 8
  %60 = getelementptr inbounds nuw %struct.SDL_Properties, ptr %59, i32 0, i32 1
  %61 = load ptr, ptr %60, align 8
  call void @SDL_UnlockMutex_REAL(ptr noundef %61)
  %62 = load ptr, ptr %6, align 8
  %63 = getelementptr inbounds nuw %struct.SDL_Properties, ptr %62, i32 0, i32 1
  %64 = load ptr, ptr %63, align 8
  call void @SDL_UnlockMutex_REAL(ptr noundef %64)
  %65 = load i8, ptr %9, align 1, !range !3, !noundef !4
  %66 = trunc i8 %65 to i1
  store i1 %66, ptr %3, align 1
  store i32 1, ptr %8, align 4
  call void @llvm.lifetime.end.p0(i64 1, ptr %9) #6
  br label %67

67:                                               ; preds = %40, %38, %28
  call void @llvm.lifetime.end.p0(i64 8, ptr %7) #6
  call void @llvm.lifetime.end.p0(i64 8, ptr %6) #6
  br label %68

68:                                               ; preds = %67, %18, %13
  %69 = load i1, ptr %3, align 1
  ret i1 %69
}