; Function Attrs: nounwind uwtable
define hidden zeroext i1 @SDL_CopyProperties_REAL(i32 noundef %0, i32 noundef %1) local_unnamed_addr #0 {
  %3 = alloca ptr, align 8
  %4 = alloca ptr, align 8
  %5 = alloca %struct.CopyOnePropertyData, align 8
  %.not = icmp eq i32 %0, 0
  br i1 %.not, label %6, label %8

6:                                                ; preds = %2
  %7 = tail call zeroext i1 (ptr, ...) @SDL_SetError_REAL(ptr noundef nonnull @.str, ptr noundef nonnull @.str.1) #6
  br label %49

8:                                                ; preds = %2
  %.not7 = icmp eq i32 %1, 0
  br i1 %.not7, label %9, label %11

9:                                                ; preds = %8
  %10 = tail call zeroext i1 (ptr, ...) @SDL_SetError_REAL(ptr noundef nonnull @.str, ptr noundef nonnull @.str.2) #6
  br label %49

11:                                               ; preds = %8
  call void @llvm.lifetime.start.p0(i64 8, ptr nonnull %3) #6
  store ptr null, ptr %3, align 8
  call void @llvm.lifetime.start.p0(i64 8, ptr nonnull %4) #6
  store ptr null, ptr %4, align 8
  %12 = load ptr, ptr @SDL_properties, align 8
  %13 = zext i32 %0 to i64
  %14 = inttoptr i64 %13 to ptr
  %15 = call zeroext i1 @SDL_FindInHashTable(ptr noundef %12, ptr noundef nonnull %14, ptr noundef nonnull %3) #6
  %16 = load ptr, ptr %3, align 8
  %.not8 = icmp eq ptr %16, null
  br i1 %.not8, label %17, label %19

17:                                               ; preds = %11
  %18 = call zeroext i1 (ptr, ...) @SDL_SetError_REAL(ptr noundef nonnull @.str, ptr noundef nonnull @.str.1) #6
  br label %48

19:                                               ; preds = %11
  %20 = load ptr, ptr @SDL_properties, align 8
  %21 = zext i32 %1 to i64
  %22 = inttoptr i64 %21 to ptr
  %23 = call zeroext i1 @SDL_FindInHashTable(ptr noundef %20, ptr noundef nonnull %22, ptr noundef nonnull %4) #6
  %24 = load ptr, ptr %4, align 8
  %.not9 = icmp eq ptr %24, null
  br i1 %.not9, label %25, label %27

25:                                               ; preds = %19
  %26 = call zeroext i1 (ptr, ...) @SDL_SetError_REAL(ptr noundef nonnull @.str, ptr noundef nonnull @.str.2) #6
  br label %48

27:                                               ; preds = %19
  %28 = load ptr, ptr %3, align 8
  %29 = getelementptr inbounds nuw i8, ptr %28, i64 8
  %30 = load ptr, ptr %29, align 8
  call void @SDL_LockMutex_REAL(ptr noundef %30) #6
  %31 = load ptr, ptr %4, align 8
  %32 = getelementptr inbounds nuw i8, ptr %31, i64 8
  %33 = load ptr, ptr %32, align 8
  call void @SDL_LockMutex_REAL(ptr noundef %33) #6
  call void @llvm.lifetime.start.p0(i64 16, ptr nonnull %5) #6
  %34 = load ptr, ptr %4, align 8
  store ptr %34, ptr %5, align 8
  %35 = getelementptr inbounds nuw i8, ptr %5, i64 8
  store i8 1, ptr %35, align 8
  %36 = getelementptr inbounds nuw i8, ptr %5, i64 9
  call void @llvm.memset.p0.i64(ptr noundef nonnull align 1 dereferenceable(7) %36, i8 0, i64 7, i1 false)
  %37 = load ptr, ptr %3, align 8
  %38 = load ptr, ptr %37, align 8
  %39 = call zeroext i1 @SDL_IterateHashTable(ptr noundef %38, ptr noundef nonnull @CopyOneProperty, ptr noundef nonnull %5) #6
  %40 = load i8, ptr %35, align 8, !range !5, !noundef !6
  %41 = trunc nuw i8 %40 to i1
  call void @llvm.lifetime.end.p0(i64 16, ptr nonnull %5) #6
  %42 = load ptr, ptr %4, align 8
  %43 = getelementptr inbounds nuw i8, ptr %42, i64 8
  %44 = load ptr, ptr %43, align 8
  call void @SDL_UnlockMutex_REAL(ptr noundef %44) #6
  %45 = load ptr, ptr %3, align 8
  %46 = getelementptr inbounds nuw i8, ptr %45, i64 8
  %47 = load ptr, ptr %46, align 8
  call void @SDL_UnlockMutex_REAL(ptr noundef %47) #6
  br label %48

48:                                               ; preds = %27, %25, %17
  %.1 = phi i1 [ %41, %27 ], [ %26, %25 ], [ %18, %17 ]
  call void @llvm.lifetime.end.p0(i64 8, ptr nonnull %4) #6
  call void @llvm.lifetime.end.p0(i64 8, ptr nonnull %3) #6
  br label %49

49:                                               ; preds = %48, %9, %6
  %.0 = phi i1 [ %.1, %48 ], [ %10, %9 ], [ %7, %6 ]
  ret i1 %.0
}